target datalayout = "e-m:e-p270:32:32-p271:32:32-p272:64:64-i64:64-i128:128-f80:128-n8:16:32:64-S128"
target triple = "x86_64-unknown-linux-gnu"

%"class.std::__cxx11::basic_string" = type { %"struct.std::__cxx11::basic_string<char>::_Alloc_hider", i64, %union.anon }
%"struct.std::__cxx11::basic_string<char>::_Alloc_hider" = type { ptr }
%union.anon = type { i64, [8 x i8] }
%"class.Imf_3_2::TiledRgbaInputFile" = type { ptr, ptr, ptr, %"class.std::__cxx11::basic_string" }

; Function Attrs: mustprogress uwtable
define void @_ZN7Imf_3_218TiledRgbaInputFile8readTileEiiii(ptr noundef nonnull align 8 dereferenceable(56) %this, i32 noundef %dx, i32 noundef %dy, i32 noundef %lx, i32 noundef %ly) #4 align 2 {
entry:
  %this.addr = alloca ptr, align 8
  %dx.addr = alloca i32, align 4
  %dy.addr = alloca i32, align 4
  %lx.addr = alloca i32, align 4
  %ly.addr = alloca i32, align 4
  store ptr %this, ptr %this.addr, align 8
  store i32 %dx, ptr %dx.addr, align 4
  store i32 %dy, ptr %dy.addr, align 4
  store i32 %lx, ptr %lx.addr, align 4
  store i32 %ly, ptr %ly.addr, align 4
  %this1 = load ptr, ptr %this.addr, align 8
  %_fromYa = getelementptr inbounds %"class.Imf_3_2::TiledRgbaInputFile", ptr %this1, i32 0, i32 2
  %0 = load ptr, ptr %_fromYa, align 8
  %tobool = icmp ne ptr %0, null
  br i1 %tobool, label %if.then, label %if.else

if.then:                                          ; preds = %entry
  %_fromYa2 = getelementptr inbounds %"class.Imf_3_2::TiledRgbaInputFile", ptr %this1, i32 0, i32 2
  %1 = load ptr, ptr %_fromYa2, align 8
  %2 = load i32, ptr %dx.addr, align 4
  %3 = load i32, ptr %dy.addr, align 4
  %4 = load i32, ptr %lx.addr, align 4
  %5 = load i32, ptr %ly.addr, align 4
  call void @_ZN7Imf_3_218TiledRgbaInputFile6FromYa8readTileEiiii(ptr noundef nonnull align 8 dereferenceable(80) %1, i32 noundef %2, i32 noundef %3, i32 noundef %4, i32 noundef %5)
  br label %if.end

if.else:                                          ; preds = %entry
  %_inputFile = getelementptr inbounds %"class.Imf_3_2::TiledRgbaInputFile", ptr %this1, i32 0, i32 1
  %6 = load ptr, ptr %_inputFile, align 8
  %7 = load i32, ptr %dx.addr, align 4
  %8 = load i32, ptr %dy.addr, align 4
  %9 = load i32, ptr %lx.addr, align 4
  %10 = load i32, ptr %ly.addr, align 4
  call void @_ZN7Imf_3_214TiledInputFile8readTileEiiii(ptr noundef nonnull align 8 dereferenceable(16) %6, i32 noundef %7, i32 noundef %8, i32 noundef %9, i32 noundef %10)
  br label %if.end

if.end:                                           ; preds = %if.else, %if.then
  ret void
}